target datalayout = "e-m:e-p270:32:32-p271:32:32-p272:64:64-i64:64-i128:128-f80:128-n8:16:32:64-S128"
target triple = "x86_64-pc-linux-gnu"

%struct.pmix_output_desc_t = type { i8, i8, i32, i8, i32, ptr, ptr, i32, ptr, i32, i8, i8, i8, i8, ptr, i32, i32 }

@pmix_output_info = global [64 x %struct.pmix_output_desc_t] zeroinitializer, align 16
@output_prefix = internal global ptr null, align 8
@output_dir = internal global ptr null, align 8
@.str.27 = private unnamed_addr constant [2 x i8] c"/\00", align 1
@.str.28 = private unnamed_addr constant [11 x i8] c"output.txt\00", align 1

; Function Attrs: inlinehint nounwind uwtable
define internal void @pmix_strncpy(ptr noundef %0, ptr noundef %1, i64 noundef %2) #7 {
  %4 = alloca ptr, align 8
  %5 = alloca ptr, align 8
  %6 = alloca i64, align 8
  %7 = alloca i64, align 8
  store ptr %0, ptr %4, align 8, !tbaa !32
  store ptr %1, ptr %5, align 8, !tbaa !32
  store i64 %2, ptr %6, align 8, !tbaa !90
  call void @llvm.lifetime.start.p0(i64 8, ptr %7) #12
  store i64 0, ptr %7, align 8, !tbaa !90
  br label %8

8:                                                ; preds = %22, %3
  %9 = load i64, ptr %7, align 8, !tbaa !90
  %10 = load i64, ptr %6, align 8, !tbaa !90
  %11 = icmp ult i64 %9, %10
  br i1 %11, label %12, label %29

12:                                               ; preds = %8
  %13 = load ptr, ptr %5, align 8, !tbaa !32
  %14 = load i8, ptr %13, align 1, !tbaa !39
  %15 = load ptr, ptr %4, align 8, !tbaa !32
  store i8 %14, ptr %15, align 1, !tbaa !39
  %16 = load ptr, ptr %5, align 8, !tbaa !32
  %17 = load i8, ptr %16, align 1, !tbaa !39
  %18 = sext i8 %17 to i32
  %19 = icmp eq i32 0, %18
  br i1 %19, label %20, label %21

20:                                               ; preds = %12
  br label %29

21:                                               ; preds = %12
  br label %22

22:                                               ; preds = %21
  %23 = load i64, ptr %7, align 8, !tbaa !90
  %24 = add i64 %23, 1
  store i64 %24, ptr %7, align 8, !tbaa !90
  %25 = load ptr, ptr %5, align 8, !tbaa !32
  %26 = getelementptr inbounds nuw i8, ptr %25, i32 1
  store ptr %26, ptr %5, align 8, !tbaa !32
  %27 = load ptr, ptr %4, align 8, !tbaa !32
  %28 = getelementptr inbounds nuw i8, ptr %27, i32 1
  store ptr %28, ptr %4, align 8, !tbaa !32
  br label %8, !llvm.loop !92

29:                                               ; preds = %20, %8
  %30 = load ptr, ptr %4, align 8, !tbaa !32
  store i8 0, ptr %30, align 1, !tbaa !39
  call void @llvm.lifetime.end.p0(i64 8, ptr %7) #12
  ret void
}

; Function Attrs: nounwind uwtable
define internal i32 @open_file(i32 noundef %0) #0 {
  %2 = alloca i32, align 4
  %3 = alloca i32, align 4
  %4 = alloca i32, align 4
  %5 = alloca ptr, align 8
  %6 = alloca i32, align 4
  %7 = alloca i32, align 4
  store i32 %0, ptr %3, align 4, !tbaa !33
  call void @llvm.lifetime.start.p0(i64 4, ptr %4) #12
  call void @llvm.lifetime.start.p0(i64 8, ptr %5) #12
  call void @llvm.lifetime.start.p0(i64 4, ptr %6) #12
  store i32 0, ptr %6, align 4, !tbaa !33
  br label %8

8:                                                ; preds = %109, %1
  %9 = load i32, ptr %6, align 4, !tbaa !33
  %10 = icmp slt i32 %9, 64
  br i1 %10, label %11, label %112

11:                                               ; preds = %8
  %12 = load i32, ptr %3, align 4, !tbaa !33
  %13 = load i32, ptr %6, align 4, !tbaa !33
  %14 = icmp eq i32 %12, %13
  br i1 %14, label %15, label %16

15:                                               ; preds = %11
  br label %109

16:                                               ; preds = %11
  %17 = load i32, ptr %6, align 4, !tbaa !33
  %18 = sext i32 %17 to i64
  %19 = getelementptr inbounds [64 x %struct.pmix_output_desc_t], ptr @pmix_output_info, i64 0, i64 %18
  %20 = getelementptr inbounds nuw %struct.pmix_output_desc_t, ptr %19, i32 0, i32 0
  %21 = load i8, ptr %20, align 8, !tbaa !40, !range !30, !noundef !31
  %22 = trunc i8 %21 to i1
  br i1 %22, label %24, label %23

23:                                               ; preds = %16
  br label %109

24:                                               ; preds = %16
  %25 = load i32, ptr %6, align 4, !tbaa !33
  %26 = sext i32 %25 to i64
  %27 = getelementptr inbounds [64 x %struct.pmix_output_desc_t], ptr @pmix_output_info, i64 0, i64 %26
  %28 = getelementptr inbounds nuw %struct.pmix_output_desc_t, ptr %27, i32 0, i32 12
  %29 = load i8, ptr %28, align 2, !tbaa !44, !range !30, !noundef !31
  %30 = trunc i8 %29 to i1
  br i1 %30, label %32, label %31

31:                                               ; preds = %24
  br label %109

32:                                               ; preds = %24
  %33 = load i32, ptr %3, align 4, !tbaa !33
  %34 = sext i32 %33 to i64
  %35 = getelementptr inbounds [64 x %struct.pmix_output_desc_t], ptr @pmix_output_info, i64 0, i64 %34
  %36 = getelementptr inbounds nuw %struct.pmix_output_desc_t, ptr %35, i32 0, i32 14
  %37 = load ptr, ptr %36, align 8, !tbaa !45
  %38 = icmp ne ptr null, %37
  br i1 %38, label %39, label %61

39:                                               ; preds = %32
  %40 = load i32, ptr %6, align 4, !tbaa !33
  %41 = sext i32 %40 to i64
  %42 = getelementptr inbounds [64 x %struct.pmix_output_desc_t], ptr @pmix_output_info, i64 0, i64 %41
  %43 = getelementptr inbounds nuw %struct.pmix_output_desc_t, ptr %42, i32 0, i32 14
  %44 = load ptr, ptr %43, align 8, !tbaa !45
  %45 = icmp ne ptr null, %44
  br i1 %45, label %46, label %61

46:                                               ; preds = %39
  %47 = load i32, ptr %3, align 4, !tbaa !33
  %48 = sext i32 %47 to i64
  %49 = getelementptr inbounds [64 x %struct.pmix_output_desc_t], ptr @pmix_output_info, i64 0, i64 %48
  %50 = getelementptr inbounds nuw %struct.pmix_output_desc_t, ptr %49, i32 0, i32 14
  %51 = load ptr, ptr %50, align 8, !tbaa !45
  %52 = load i32, ptr %6, align 4, !tbaa !33
  %53 = sext i32 %52 to i64
  %54 = getelementptr inbounds [64 x %struct.pmix_output_desc_t], ptr @pmix_output_info, i64 0, i64 %53
  %55 = getelementptr inbounds nuw %struct.pmix_output_desc_t, ptr %54, i32 0, i32 14
  %56 = load ptr, ptr %55, align 8, !tbaa !45
  %57 = call i32 @strcmp(ptr noundef %51, ptr noundef %56) #13
  %58 = icmp ne i32 0, %57
  br i1 %58, label %59, label %60

59:                                               ; preds = %46
  br label %112

60:                                               ; preds = %46
  br label %61

61:                                               ; preds = %60, %39, %32
  %62 = load i32, ptr %3, align 4, !tbaa !33
  %63 = sext i32 %62 to i64
  %64 = getelementptr inbounds [64 x %struct.pmix_output_desc_t], ptr @pmix_output_info, i64 0, i64 %63
  %65 = getelementptr inbounds nuw %struct.pmix_output_desc_t, ptr %64, i32 0, i32 14
  %66 = load ptr, ptr %65, align 8, !tbaa !45
  %67 = icmp eq ptr null, %66
  br i1 %67, label %68, label %76

68:                                               ; preds = %61
  %69 = load i32, ptr %6, align 4, !tbaa !33
  %70 = sext i32 %69 to i64
  %71 = getelementptr inbounds [64 x %struct.pmix_output_desc_t], ptr @pmix_output_info, i64 0, i64 %70
  %72 = getelementptr inbounds nuw %struct.pmix_output_desc_t, ptr %71, i32 0, i32 14
  %73 = load ptr, ptr %72, align 8, !tbaa !45
  %74 = icmp ne ptr null, %73
  br i1 %74, label %75, label %76

75:                                               ; preds = %68
  br label %112

76:                                               ; preds = %68, %61
  %77 = load i32, ptr %3, align 4, !tbaa !33
  %78 = sext i32 %77 to i64
  %79 = getelementptr inbounds [64 x %struct.pmix_output_desc_t], ptr @pmix_output_info, i64 0, i64 %78
  %80 = getelementptr inbounds nuw %struct.pmix_output_desc_t, ptr %79, i32 0, i32 14
  %81 = load ptr, ptr %80, align 8, !tbaa !45
  %82 = icmp ne ptr null, %81
  br i1 %82, label %83, label %91

83:                                               ; preds = %76
  %84 = load i32, ptr %6, align 4, !tbaa !33
  %85 = sext i32 %84 to i64
  %86 = getelementptr inbounds [64 x %struct.pmix_output_desc_t], ptr @pmix_output_info, i64 0, i64 %85
  %87 = getelementptr inbounds nuw %struct.pmix_output_desc_t, ptr %86, i32 0, i32 14
  %88 = load ptr, ptr %87, align 8, !tbaa !45
  %89 = icmp eq ptr null, %88
  br i1 %89, label %90, label %91

90:                                               ; preds = %83
  br label %112

91:                                               ; preds = %83, %76
  %92 = load i32, ptr %6, align 4, !tbaa !33
  %93 = sext i32 %92 to i64
  %94 = getelementptr inbounds [64 x %struct.pmix_output_desc_t], ptr @pmix_output_info, i64 0, i64 %93
  %95 = getelementptr inbounds nuw %struct.pmix_output_desc_t, ptr %94, i32 0, i32 15
  %96 = load i32, ptr %95, align 8, !tbaa !47
  %97 = icmp slt i32 %96, 0
  br i1 %97, label %98, label %99

98:                                               ; preds = %91
  br label %112

99:                                               ; preds = %91
  %100 = load i32, ptr %6, align 4, !tbaa !33
  %101 = sext i32 %100 to i64
  %102 = getelementptr inbounds [64 x %struct.pmix_output_desc_t], ptr @pmix_output_info, i64 0, i64 %101
  %103 = getelementptr inbounds nuw %struct.pmix_output_desc_t, ptr %102, i32 0, i32 15
  %104 = load i32, ptr %103, align 8, !tbaa !47
  %105 = load i32, ptr %3, align 4, !tbaa !33
  %106 = sext i32 %105 to i64
  %107 = getelementptr inbounds [64 x %struct.pmix_output_desc_t], ptr @pmix_output_info, i64 0, i64 %106
  %108 = getelementptr inbounds nuw %struct.pmix_output_desc_t, ptr %107, i32 0, i32 15
  store i32 %104, ptr %108, align 8, !tbaa !47
  store i32 0, ptr %2, align 4
  store i32 1, ptr %7, align 4
  br label %194

109:                                              ; preds = %31, %23, %15
  %110 = load i32, ptr %6, align 4, !tbaa !33
  %111 = add nsw i32 %110, 1
  store i32 %111, ptr %6, align 4, !tbaa !33
  br label %8, !llvm.loop !91

112:                                              ; preds = %98, %90, %75, %59, %8
  %113 = load ptr, ptr @output_dir, align 8, !tbaa !32
  %114 = icmp ne ptr null, %113
  br i1 %114, label %115, label %193

115:                                              ; preds = %112
  %116 = call noalias ptr @malloc(i64 noundef 4097) #15
  store ptr %116, ptr %5, align 8, !tbaa !32
  %117 = load ptr, ptr %5, align 8, !tbaa !32
  %118 = icmp eq ptr null, %117
  br i1 %118, label %119, label %120

119:                                              ; preds = %115
  store i32 -29, ptr %2, align 4
  store i32 1, ptr %7, align 4
  br label %194

120:                                              ; preds = %115
  %121 = load ptr, ptr %5, align 8, !tbaa !32
  %122 = load ptr, ptr @output_dir, align 8, !tbaa !32
  call void @pmix_strncpy(ptr noundef %121, ptr noundef %122, i64 noundef 4096)
  %123 = load ptr, ptr %5, align 8, !tbaa !32
  %124 = call ptr @strcat(ptr noundef %123, ptr noundef @.str.27) #12
  %125 = load ptr, ptr @output_prefix, align 8, !tbaa !32
  %126 = icmp ne ptr null, %125
  br i1 %126, label %127, label %131

127:                                              ; preds = %120
  %128 = load ptr, ptr %5, align 8, !tbaa !32
  %129 = load ptr, ptr @output_prefix, align 8, !tbaa !32
  %130 = call ptr @strcat(ptr noundef %128, ptr noundef %129) #12
  br label %131

131:                                              ; preds = %127, %120
  %132 = load i32, ptr %3, align 4, !tbaa !33
  %133 = sext i32 %132 to i64
  %134 = getelementptr inbounds [64 x %struct.pmix_output_desc_t], ptr @pmix_output_info, i64 0, i64 %133
  %135 = getelementptr inbounds nuw %struct.pmix_output_desc_t, ptr %134, i32 0, i32 14
  %136 = load ptr, ptr %135, align 8, !tbaa !45
  %137 = icmp ne ptr %136, null
  br i1 %137, label %138, label %146

138:                                              ; preds = %131
  %139 = load ptr, ptr %5, align 8, !tbaa !32
  %140 = load i32, ptr %3, align 4, !tbaa !33
  %141 = sext i32 %140 to i64
  %142 = getelementptr inbounds [64 x %struct.pmix_output_desc_t], ptr @pmix_output_info, i64 0, i64 %141
  %143 = getelementptr inbounds nuw %struct.pmix_output_desc_t, ptr %142, i32 0, i32 14
  %144 = load ptr, ptr %143, align 8, !tbaa !45
  %145 = call ptr @strcat(ptr noundef %139, ptr noundef %144) #12
  br label %153

146:                                              ; preds = %131
  %147 = load i32, ptr %3, align 4, !tbaa !33
  %148 = sext i32 %147 to i64
  %149 = getelementptr inbounds [64 x %struct.pmix_output_desc_t], ptr @pmix_output_info, i64 0, i64 %148
  %150 = getelementptr inbounds nuw %struct.pmix_output_desc_t, ptr %149, i32 0, i32 14
  store ptr null, ptr %150, align 8, !tbaa !45
  %151 = load ptr, ptr %5, align 8, !tbaa !32
  %152 = call ptr @strcat(ptr noundef %151, ptr noundef @.str.28) #12
  br label %153

153:                                              ; preds = %146, %138
  store i32 66, ptr %4, align 4, !tbaa !33
  %154 = load i32, ptr %3, align 4, !tbaa !33
  %155 = sext i32 %154 to i64
  %156 = getelementptr inbounds [64 x %struct.pmix_output_desc_t], ptr @pmix_output_info, i64 0, i64 %155
  %157 = getelementptr inbounds nuw %struct.pmix_output_desc_t, ptr %156, i32 0, i32 13
  %158 = load i8, ptr %157, align 1, !tbaa !46, !range !30, !noundef !31
  %159 = trunc i8 %158 to i1
  br i1 %159, label %163, label %160

160:                                              ; preds = %153
  %161 = load i32, ptr %4, align 4, !tbaa !33
  %162 = or i32 %161, 512
  store i32 %162, ptr %4, align 4, !tbaa !33
  br label %163

163:                                              ; preds = %160, %153
  %164 = load ptr, ptr %5, align 8, !tbaa !32
  %165 = load i32, ptr %4, align 4, !tbaa !33
  %166 = call i32 (ptr, i32, ...) @open(ptr noundef %164, i32 noundef %165, i32 noundef 420)
  %167 = load i32, ptr %3, align 4, !tbaa !33
  %168 = sext i32 %167 to i64
  %169 = getelementptr inbounds [64 x %struct.pmix_output_desc_t], ptr @pmix_output_info, i64 0, i64 %168
  %170 = getelementptr inbounds nuw %struct.pmix_output_desc_t, ptr %169, i32 0, i32 15
  store i32 %166, ptr %170, align 8, !tbaa !47
  %171 = load ptr, ptr %5, align 8, !tbaa !32
  call void @free(ptr noundef %171) #12
  %172 = load i32, ptr %3, align 4, !tbaa !33
  %173 = sext i32 %172 to i64
  %174 = getelementptr inbounds [64 x %struct.pmix_output_desc_t], ptr @pmix_output_info, i64 0, i64 %173
  %175 = getelementptr inbounds nuw %struct.pmix_output_desc_t, ptr %174, i32 0, i32 15
  %176 = load i32, ptr %175, align 8, !tbaa !47
  %177 = icmp eq i32 -1, %176
  br i1 %177, label %178, label %183

178:                                              ; preds = %163
  %179 = load i32, ptr %3, align 4, !tbaa !33
  %180 = sext i32 %179 to i64
  %181 = getelementptr inbounds [64 x %struct.pmix_output_desc_t], ptr @pmix_output_info, i64 0, i64 %180
  %182 = getelementptr inbounds nuw %struct.pmix_output_desc_t, ptr %181, i32 0, i32 0
  store i8 0, ptr %182, align 8, !tbaa !40
  store i32 -26, ptr %2, align 4
  store i32 1, ptr %7, align 4
  br label %194

183:                                              ; preds = %163
  %184 = load i32, ptr %3, align 4, !tbaa !33
  %185 = sext i32 %184 to i64
  %186 = getelementptr inbounds [64 x %struct.pmix_output_desc_t], ptr @pmix_output_info, i64 0, i64 %185
  %187 = getelementptr inbounds nuw %struct.pmix_output_desc_t, ptr %186, i32 0, i32 15
  %188 = load i32, ptr %187, align 8, !tbaa !47
  %189 = call i32 (i32, i32, ...) @fcntl(i32 noundef %188, i32 noundef 2, i32 noundef 1)
  %190 = icmp eq i32 -1, %189
  br i1 %190, label %191, label %192

191:                                              ; preds = %183
  store i32 -26, ptr %2, align 4
  store i32 1, ptr %7, align 4
  br label %194

192:                                              ; preds = %183
  br label %193

193:                                              ; preds = %192, %112
  store i32 0, ptr %2, align 4
  store i32 1, ptr %7, align 4
  br label %194

194:                                              ; preds = %193, %191, %178, %119, %99
  call void @llvm.lifetime.end.p0(i64 4, ptr %6) #12
  call void @llvm.lifetime.end.p0(i64 8, ptr %5) #12
  call void @llvm.lifetime.end.p0(i64 4, ptr %4) #12
  %195 = load i32, ptr %2, align 4
  ret i32 %195
}