; Function Attrs: nounwind uwtable
define internal fastcc range(i32 -29, 1) i32 @open_file(i32 noundef range(i32 0, 64) %0) unnamed_addr #2 {
  %2 = zext nneg i32 %0 to i64
  br label %3

3:                                                ; preds = %1, %28
  %indvars.iv = phi i64 [ 0, %1 ], [ %indvars.iv.next, %28 ]
  %4 = icmp eq i64 %indvars.iv, %2
  br i1 %4, label %28, label %5

5:                                                ; preds = %3
  %6 = getelementptr inbounds nuw [64 x %struct.pmix_output_desc_t], ptr @pmix_output_info, i64 0, i64 %indvars.iv
  %7 = load i8, ptr %6, align 8, !tbaa !34, !range !26, !noundef !27
  %8 = trunc nuw i8 %7 to i1
  br i1 %8, label %9, label %28

9:                                                ; preds = %5
  %10 = getelementptr inbounds nuw i8, ptr %6, i64 54
  %11 = load i8, ptr %10, align 2, !tbaa !38, !range !26, !noundef !27
  %12 = trunc nuw i8 %11 to i1
  br i1 %12, label %13, label %28

13:                                               ; preds = %9
  %14 = getelementptr inbounds nuw [64 x %struct.pmix_output_desc_t], ptr @pmix_output_info, i64 0, i64 %2
  %15 = getelementptr inbounds nuw i8, ptr %14, i64 56
  %16 = load ptr, ptr %15, align 8, !tbaa !39
  %.not = icmp eq ptr %16, null
  %17 = getelementptr inbounds nuw i8, ptr %6, i64 56
  %18 = load ptr, ptr %17, align 8, !tbaa !39
  %.not47 = icmp eq ptr %18, null
  br i1 %.not, label %22, label %19

19:                                               ; preds = %13
  br i1 %.not47, label %.loopexit, label %20

20:                                               ; preds = %19
  %21 = tail call i32 @strcmp(ptr noundef nonnull dereferenceable(1) %16, ptr noundef nonnull dereferenceable(1) %18) #23
  %.not46 = icmp eq i32 %21, 0
  br i1 %.not46, label %.thread54, label %.loopexit

22:                                               ; preds = %13
  br i1 %.not47, label %.thread54, label %.loopexit

.thread54:                                        ; preds = %20, %22
  %23 = getelementptr inbounds nuw i8, ptr %6, i64 64
  %24 = load i32, ptr %23, align 8, !tbaa !41
  %25 = icmp slt i32 %24, 0
  br i1 %25, label %.loopexit, label %26

26:                                               ; preds = %.thread54
  %27 = getelementptr inbounds nuw i8, ptr %14, i64 64
  store i32 %24, ptr %27, align 8, !tbaa !41
  br label %61

28:                                               ; preds = %9, %5, %3
  %indvars.iv.next = add nuw nsw i64 %indvars.iv, 1
  %exitcond.not = icmp eq i64 %indvars.iv.next, 64
  br i1 %exitcond.not, label %.loopexit, label %3, !llvm.loop !70

.loopexit:                                        ; preds = %28, %19, %.thread54, %22, %20
  %29 = load ptr, ptr @output_dir, align 8, !tbaa !16
  %.not49 = icmp eq ptr %29, null
  br i1 %.not49, label %60, label %30

30:                                               ; preds = %.loopexit
  %31 = tail call noalias dereferenceable_or_null(4097) ptr @malloc(i64 noundef 4097) #24
  %32 = icmp eq ptr %31, null
  br i1 %32, label %61, label %.preheader

.preheader:                                       ; preds = %30, %35
  %.012.i = phi i64 [ %36, %35 ], [ 0, %30 ]
  %.0811.i = phi ptr [ %38, %35 ], [ %31, %30 ]
  %.0910.i = phi ptr [ %37, %35 ], [ %29, %30 ]
  %33 = load i8, ptr %.0910.i, align 1, !tbaa !33
  store i8 %33, ptr %.0811.i, align 1, !tbaa !33
  %34 = icmp eq i8 %33, 0
  br i1 %34, label %pmix_strncpy.exit, label %35

35:                                               ; preds = %.preheader
  %36 = add nuw nsw i64 %.012.i, 1
  %37 = getelementptr inbounds nuw i8, ptr %.0910.i, i64 1
  %38 = getelementptr inbounds nuw i8, ptr %.0811.i, i64 1
  %exitcond.not.i = icmp eq i64 %36, 4096
  br i1 %exitcond.not.i, label %pmix_strncpy.exit, label %.preheader, !llvm.loop !71

pmix_strncpy.exit:                                ; preds = %.preheader, %35
  %.08.lcssa.i = phi ptr [ %.0811.i, %.preheader ], [ %38, %35 ]
  store i8 0, ptr %.08.lcssa.i, align 1, !tbaa !33
  %strlen = tail call i64 @strlen(ptr nonnull dereferenceable(1) %31)
  %endptr = getelementptr inbounds i8, ptr %31, i64 %strlen
  store i16 47, ptr %endptr, align 1
  %39 = load ptr, ptr @output_prefix, align 8, !tbaa !16
  %.not50 = icmp eq ptr %39, null
  br i1 %.not50, label %42, label %40

40:                                               ; preds = %pmix_strncpy.exit
  %41 = tail call ptr @strcat(ptr noundef nonnull dereferenceable(1) %31, ptr noundef nonnull dereferenceable(1) %39) #22
  br label %42

42:                                               ; preds = %40, %pmix_strncpy.exit
  %43 = getelementptr inbounds nuw [64 x %struct.pmix_output_desc_t], ptr @pmix_output_info, i64 0, i64 %2
  %44 = getelementptr inbounds nuw i8, ptr %43, i64 56
  %45 = load ptr, ptr %44, align 8, !tbaa !39
  %.not51 = icmp eq ptr %45, null
  br i1 %.not51, label %48, label %46

46:                                               ; preds = %42
  %47 = tail call ptr @strcat(ptr noundef nonnull dereferenceable(1) %31, ptr noundef nonnull dereferenceable(1) %45) #22
  br label %49

48:                                               ; preds = %42
  %strlen52 = tail call i64 @strlen(ptr nonnull dereferenceable(1) %31)
  %endptr53 = getelementptr inbounds i8, ptr %31, i64 %strlen52
  tail call void @llvm.memcpy.p0.p0.i64(ptr noundef nonnull align 1 dereferenceable(11) %endptr53, ptr noundef nonnull align 1 dereferenceable(11) @.str.28, i64 11, i1 false)
  br label %49

49:                                               ; preds = %48, %46
  %50 = getelementptr inbounds nuw i8, ptr %43, i64 55
  %51 = load i8, ptr %50, align 1, !tbaa !40, !range !26, !noundef !27
  %52 = trunc nuw i8 %51 to i1
  %spec.select = select i1 %52, i32 66, i32 578
  %53 = tail call i32 (ptr, i32, ...) @open(ptr noundef nonnull %31, i32 noundef %spec.select, i32 noundef 420) #22
  %54 = getelementptr inbounds nuw i8, ptr %43, i64 64
  store i32 %53, ptr %54, align 8, !tbaa !41
  tail call void @free(ptr noundef nonnull %31) #22
  %55 = icmp eq i32 %53, -1
  br i1 %55, label %56, label %57

56:                                               ; preds = %49
  store i8 0, ptr %43, align 8, !tbaa !34
  br label %61

57:                                               ; preds = %49
  %58 = tail call i32 (i32, i32, ...) @fcntl(i32 noundef %53, i32 noundef 2, i32 noundef 1) #22
  %59 = icmp eq i32 %58, -1
  br i1 %59, label %61, label %60

60:                                               ; preds = %57, %.loopexit
  br label %61

61:                                               ; preds = %57, %30, %60, %56, %26
  %.035 = phi i32 [ -26, %56 ], [ 0, %60 ], [ 0, %26 ], [ -29, %30 ], [ -26, %57 ]
  ret i32 %.035
}